target datalayout = "e-m:e-p270:32:32-p271:32:32-p272:64:64-i64:64-i128:128-f80:128-n8:16:32:64-S128"
target triple = "x86_64-pc-linux-gnu"

@stderr = external global ptr, align 8
@.str = private unnamed_addr constant [28 x i8] c"%s: Unexpected end of file\0A\00", align 1
@.str.1 = private unnamed_addr constant [13 x i8] c"unknown file\00", align 1
@.str.2 = private unnamed_addr constant [26 x i8] c"%s: data corrupted at %d\0A\00", align 1

; Function Attrs: mustprogress nounwind uwtable
define void @default_data_callback(ptr noundef %0, ptr noundef %1, i32 noundef %2) #0 {
  %4 = alloca ptr, align 8
  %5 = alloca ptr, align 8
  %6 = alloca i32, align 4
  store ptr %0, ptr %4, align 8, !tbaa !6
  store ptr %1, ptr %5, align 8, !tbaa !10
  store i32 %2, ptr %6, align 4, !tbaa !12
  %7 = load i32, ptr %6, align 4, !tbaa !12
  %8 = icmp slt i32 %7, 0
  br i1 %8, label %9, label %19

9:                                                ; preds = %3
  %10 = load ptr, ptr @stderr, align 8, !tbaa !14
  %11 = load ptr, ptr %5, align 8, !tbaa !10
  %12 = icmp ne ptr %11, null
  br i1 %12, label %13, label %15

13:                                               ; preds = %9
  %14 = load ptr, ptr %5, align 8, !tbaa !10
  br label %16

15:                                               ; preds = %9
  br label %16

16:                                               ; preds = %15, %13
  %17 = phi ptr [ %14, %13 ], [ @.str.1, %15 ]
  %18 = call i32 (ptr, ptr, ...) @fprintf(ptr noundef %10, ptr noundef @.str, ptr noundef %17) #18
  br label %30

19:                                               ; preds = %3
  %20 = load ptr, ptr @stderr, align 8, !tbaa !14
  %21 = load ptr, ptr %5, align 8, !tbaa !10
  %22 = icmp ne ptr %21, null
  br i1 %22, label %23, label %25

23:                                               ; preds = %19
  %24 = load ptr, ptr %5, align 8, !tbaa !10
  br label %26

25:                                               ; preds = %19
  br label %26

26:                                               ; preds = %25, %23
  %27 = phi ptr [ %24, %23 ], [ @.str.1, %25 ]
  %28 = load i32, ptr %6, align 4, !tbaa !12
  %29 = call i32 (ptr, ptr, ...) @fprintf(ptr noundef %20, ptr noundef @.str.2, ptr noundef %27, i32 noundef %28) #18
  br label %30

30:                                               ; preds = %26, %16
  ret void
}