; Function Attrs: cold mustprogress nofree nounwind uwtable
define void @default_data_callback(ptr noundef readnone captures(none) %0, ptr noundef %1, i32 noundef %2) local_unnamed_addr #0 {
  %4 = icmp slt i32 %2, 0
  %5 = load ptr, ptr @stderr, align 8, !tbaa !6
  %.not5 = icmp eq ptr %1, null
  %6 = select i1 %.not5, ptr @.str.1, ptr %1
  br i1 %4, label %7, label %9

7:                                                ; preds = %3
  %8 = tail call i32 (ptr, ptr, ...) @fprintf(ptr noundef %5, ptr noundef nonnull @.str, ptr noundef nonnull %6) #27
  br label %11

9:                                                ; preds = %3
  %10 = tail call i32 (ptr, ptr, ...) @fprintf(ptr noundef %5, ptr noundef nonnull @.str.2, ptr noundef nonnull %6, i32 noundef %2) #27
  br label %11

11:                                               ; preds = %9, %7
  ret void
}